; Function Attrs: mustprogress uwtable
define dso_local void @_ZN11V3LexerBase21yyensure_buffer_stackEv(ptr noundef nonnull align 8 dereferenceable(732) %0) local_unnamed_addr #4 align 2 {
  %2 = getelementptr inbounds i8, ptr %0, i64 648
  %3 = load ptr, ptr %2, align 8
  %.not = icmp eq ptr %3, null
  br i1 %.not, label %4, label %14

4:                                                ; preds = %1
  %5 = tail call noalias noundef dereferenceable_or_null(8) ptr @malloc(i64 noundef 8) #31
  store ptr %5, ptr %2, align 8
  %.not7 = icmp eq ptr %5, null
  br i1 %.not7, label %6, label %10

6:                                                ; preds = %4
  %7 = load ptr, ptr %0, align 8
  %8 = getelementptr inbounds i8, ptr %7, i64 112
  %9 = load ptr, ptr %8, align 8
  tail call void %9(ptr noundef nonnull align 8 dereferenceable(732) %0, ptr noundef nonnull @.str.29)
  %.pre10 = load ptr, ptr %2, align 8
  br label %10

10:                                               ; preds = %6, %4
  %11 = phi ptr [ %.pre10, %6 ], [ %5, %4 ]
  store i64 0, ptr %11, align 8
  %12 = getelementptr inbounds i8, ptr %0, i64 640
  store i64 1, ptr %12, align 8
  %13 = getelementptr inbounds i8, ptr %0, i64 632
  store i64 0, ptr %13, align 8
  br label %32

14:                                               ; preds = %1
  %15 = getelementptr inbounds i8, ptr %0, i64 632
  %16 = load i64, ptr %15, align 8
  %17 = getelementptr inbounds i8, ptr %0, i64 640
  %18 = load i64, ptr %17, align 8
  %19 = add i64 %18, -1
  %.not8 = icmp ult i64 %16, %19
  br i1 %.not8, label %32, label %20

20:                                               ; preds = %14
  %21 = add i64 %18, 8
  %22 = shl i64 %21, 3
  %23 = tail call noalias noundef ptr @realloc(ptr noundef nonnull %3, i64 noundef %22) #32
  store ptr %23, ptr %2, align 8
  %.not9 = icmp eq ptr %23, null
  br i1 %.not9, label %24, label %28

24:                                               ; preds = %20
  %25 = load ptr, ptr %0, align 8
  %26 = getelementptr inbounds i8, ptr %25, i64 112
  %27 = load ptr, ptr %26, align 8
  tail call void %27(ptr noundef nonnull align 8 dereferenceable(732) %0, ptr noundef nonnull @.str.29)
  %.pre = load ptr, ptr %2, align 8
  br label %28

28:                                               ; preds = %24, %20
  %29 = phi ptr [ %.pre, %24 ], [ %23, %20 ]
  %30 = load i64, ptr %17, align 8
  %31 = getelementptr inbounds ptr, ptr %29, i64 %30
  tail call void @llvm.memset.p0.i64(ptr noundef nonnull align 8 dereferenceable(64) %31, i8 0, i64 64, i1 false)
  store i64 %21, ptr %17, align 8
  br label %32

32:                                               ; preds = %28, %14, %10
  ret void
}